target datalayout = "e-m:e-p270:32:32-p271:32:32-p272:64:64-i64:64-i128:128-f80:128-n8:16:32:64-S128"
target triple = "x86_64-unknown-linux-gnu"

%"struct.std::atomic" = type { %"struct.std::__atomic_base" }
%"struct.std::__atomic_base" = type { i64 }
%"class.tbb::detail::d1::wait_context" = type { i64, %"struct.std::atomic" }
%"class.tbb::detail::d1::task" = type { ptr, %"class.tbb::detail::d1::task_traits", [6 x i64] }
%"class.tbb::detail::d1::task_traits" = type { i64 }
%"class.tbb::detail::d1::small_object_allocator" = type { ptr }
%"class.tbb::detail::d2::feeder_impl" = type { %"class.tbb::detail::d1::feeder", ptr, ptr, ptr }
%"class.tbb::detail::d1::feeder" = type { ptr }
%"struct.tbb::detail::d2::feeder_item_task" = type { %"class.tbb::detail::d1::task", ptr, ptr, %"class.tbb::detail::d1::small_object_allocator", [40 x i8] }

@_ZTVN3tbb6detail2d14taskE = linkonce_odr dso_local unnamed_addr constant { [6 x ptr] } { [6 x ptr] [ptr null, ptr @_ZTIN3tbb6detail2d14taskE, ptr @_ZN3tbb6detail2d14taskD2Ev, ptr @_ZN3tbb6detail2d14taskD0Ev, ptr @__cxa_pure_virtual, ptr @__cxa_pure_virtual] }, comdat, align 8

; Function Attrs: mustprogress nounwind
define linkonce_odr dso_local void @_ZN3tbb6detail2d111task_traitsC2Ev(ptr noundef nonnull align 8 dereferenceable(8) %this) unnamed_addr #4 comdat align 2 {
entry:
  %this.addr = alloca ptr, align 8
  store ptr %this, ptr %this.addr, align 8
  %this1 = load ptr, ptr %this.addr, align 8
  %m_version_and_traits = getelementptr inbounds %"class.tbb::detail::d1::task_traits", ptr %this1, i32 0, i32 0
  store i64 0, ptr %m_version_and_traits, align 8
  ret void
}

; Function Attrs: mustprogress nounwind
define linkonce_odr dso_local void @_ZN3tbb6detail2d14taskC2Ev(ptr noundef nonnull align 64 dereferenceable(64) %this) unnamed_addr #4 comdat align 2 {
entry:
  %this.addr = alloca ptr, align 8
  store ptr %this, ptr %this.addr, align 8
  %this1 = load ptr, ptr %this.addr, align 8
  %0 = getelementptr inbounds i8, ptr %this1, i64 8
  call void @_ZN3tbb6detail2d111task_traitsC2Ev(ptr noundef nonnull align 8 dereferenceable(8) %0) #3
  store ptr getelementptr inbounds ({ [6 x ptr] }, ptr @_ZTVN3tbb6detail2d14taskE, i32 0, i32 0, i32 2), ptr %this1, align 64
  %m_reserved = getelementptr inbounds %"class.tbb::detail::d1::task", ptr %this1, i32 0, i32 2
  %arrayinit.begin = getelementptr inbounds [6 x i64], ptr %m_reserved, i64 0, i64 0
  %arrayinit.end = getelementptr inbounds i64, ptr %arrayinit.begin, i64 6
  br label %arrayinit.body

arrayinit.body:                                   ; preds = %arrayinit.body, %entry
  %arrayinit.cur = phi ptr [ %arrayinit.begin, %entry ], [ %arrayinit.next, %arrayinit.body ]
  store i64 0, ptr %arrayinit.cur, align 8
  %arrayinit.next = getelementptr inbounds i64, ptr %arrayinit.cur, i64 1
  %arrayinit.done = icmp eq ptr %arrayinit.next, %arrayinit.end
  br i1 %arrayinit.done, label %arrayinit.end2, label %arrayinit.body

arrayinit.end2:                                   ; preds = %arrayinit.body
  ret void
}

; Function Attrs: mustprogress nounwind
define linkonce_odr dso_local void @_ZN3tbb6detail2d120call_itt_task_notifyENS1_11notify_typeEPv(i32 noundef %0, ptr noundef %1) #4 comdat {
entry:
  %.addr = alloca i32, align 4
  %.addr1 = alloca ptr, align 8
  store i32 %0, ptr %.addr, align 4
  store ptr %1, ptr %.addr1, align 8
  ret void
}

; Function Attrs: mustprogress nounwind
define linkonce_odr dso_local void @_ZN3tbb6detail2d112wait_context13add_referenceEl(ptr noundef nonnull align 8 dereferenceable(16) %this, i64 noundef %delta) #4 comdat align 2 {
entry:
  %this.addr.i = alloca ptr, align 8
  %__i.addr.i = alloca i64, align 8
  %__m.addr.i = alloca i32, align 4
  %.atomictmp.i = alloca i64, align 8
  %atomic-temp.i = alloca i64, align 8
  %this.addr = alloca ptr, align 8
  %delta.addr = alloca i64, align 8
  %r = alloca i64, align 8
  %wait_ctx_addr = alloca i64, align 8
  store ptr %this, ptr %this.addr, align 8
  store i64 %delta, ptr %delta.addr, align 8
  %this1 = load ptr, ptr %this.addr, align 8
  call void @_ZN3tbb6detail2d120call_itt_task_notifyENS1_11notify_typeEPv(i32 noundef 3, ptr noundef %this1)
  %m_ref_count = getelementptr inbounds %"class.tbb::detail::d1::wait_context", ptr %this1, i32 0, i32 1
  %0 = load i64, ptr %delta.addr, align 8
  store ptr %m_ref_count, ptr %this.addr.i, align 8
  store i64 %0, ptr %__i.addr.i, align 8
  store i32 5, ptr %__m.addr.i, align 4
  %this1.i = load ptr, ptr %this.addr.i, align 8
  %1 = load i32, ptr %__m.addr.i, align 4
  %2 = load i64, ptr %__i.addr.i, align 8
  store i64 %2, ptr %.atomictmp.i, align 8
  switch i32 %1, label %monotonic.i [
    i32 1, label %acquire.i
    i32 2, label %acquire.i
    i32 3, label %release.i
    i32 4, label %acqrel.i
    i32 5, label %seqcst.i
  ]

monotonic.i:                                      ; preds = %entry
  %3 = load i64, ptr %.atomictmp.i, align 8
  %4 = atomicrmw add ptr %this1.i, i64 %3 monotonic, align 8
  store i64 %4, ptr %atomic-temp.i, align 8
  br label %_ZNSt13__atomic_baseImE9fetch_addEmSt12memory_order.exit

acquire.i:                                        ; preds = %entry, %entry
  %5 = load i64, ptr %.atomictmp.i, align 8
  %6 = atomicrmw add ptr %this1.i, i64 %5 acquire, align 8
  store i64 %6, ptr %atomic-temp.i, align 8
  br label %_ZNSt13__atomic_baseImE9fetch_addEmSt12memory_order.exit

release.i:                                        ; preds = %entry
  %7 = load i64, ptr %.atomictmp.i, align 8
  %8 = atomicrmw add ptr %this1.i, i64 %7 release, align 8
  store i64 %8, ptr %atomic-temp.i, align 8
  br label %_ZNSt13__atomic_baseImE9fetch_addEmSt12memory_order.exit

acqrel.i:                                         ; preds = %entry
  %9 = load i64, ptr %.atomictmp.i, align 8
  %10 = atomicrmw add ptr %this1.i, i64 %9 acq_rel, align 8
  store i64 %10, ptr %atomic-temp.i, align 8
  br label %_ZNSt13__atomic_baseImE9fetch_addEmSt12memory_order.exit

seqcst.i:                                         ; preds = %entry
  %11 = load i64, ptr %.atomictmp.i, align 8
  %12 = atomicrmw add ptr %this1.i, i64 %11 seq_cst, align 8
  store i64 %12, ptr %atomic-temp.i, align 8
  br label %_ZNSt13__atomic_baseImE9fetch_addEmSt12memory_order.exit

_ZNSt13__atomic_baseImE9fetch_addEmSt12memory_order.exit: ; preds = %seqcst.i, %acqrel.i, %release.i, %acquire.i, %monotonic.i
  %13 = load i64, ptr %atomic-temp.i, align 8
  %14 = load i64, ptr %delta.addr, align 8
  %add = add i64 %13, %14
  store i64 %add, ptr %r, align 8
  %15 = load i64, ptr %r, align 8
  %tobool = icmp ne i64 %15, 0
  br i1 %tobool, label %if.end, label %if.then

if.then:                                          ; preds = %_ZNSt13__atomic_baseImE9fetch_addEmSt12memory_order.exit
  %16 = ptrtoint ptr %this1 to i64
  store i64 %16, ptr %wait_ctx_addr, align 8
  %17 = load i64, ptr %wait_ctx_addr, align 8
  call void @_ZN3tbb6detail2r114notify_waitersEm(i64 noundef %17)
  br label %if.end

if.end:                                           ; preds = %if.then, %_ZNSt13__atomic_baseImE9fetch_addEmSt12memory_order.exit
  ret void
}

; Function Attrs: mustprogress nounwind
define internal void @_ZN3tbb6detail2d216feeder_item_taskIZN4mold3elfL4markINS4_6RV64LEEEEvRNS4_7ContextIT_EERNS0_2d117concurrent_vectorIPNS4_12InputSectionIS8_EENSB_23cache_aligned_allocatorISF_EEEEEUlPNSD_IS6_EERNSB_6feederISL_EEE_SL_EC2IRKSL_EEOS8_RNS1_11feeder_implISP_SL_EERNSB_22small_object_allocatorE(ptr noundef nonnull align 64 dereferenceable(88) %this, ptr noundef nonnull align 8 dereferenceable(8) %input_item, ptr noundef nonnull align 8 dereferenceable(32) %feeder, ptr noundef nonnull align 8 dereferenceable(8) %alloc) unnamed_addr #4 align 2 {
entry:
  %this.addr = alloca ptr, align 8
  %input_item.addr = alloca ptr, align 8
  %feeder.addr = alloca ptr, align 8
  %alloc.addr = alloca ptr, align 8
  store ptr %this, ptr %this.addr, align 8
  store ptr %input_item, ptr %input_item.addr, align 8
  store ptr %feeder, ptr %feeder.addr, align 8
  store ptr %alloc, ptr %alloc.addr, align 8
  %this1 = load ptr, ptr %this.addr, align 8
  call void @_ZN3tbb6detail2d14taskC2Ev(ptr noundef nonnull align 64 dereferenceable(64) %this1) #3
  store ptr getelementptr inbounds ({ [6 x ptr] }, ptr @_ZTVN3tbb6detail2d216feeder_item_taskIZN4mold3elfL4markINS4_6RV64LEEEEvRNS4_7ContextIT_EERNS0_2d117concurrent_vectorIPNS4_12InputSectionIS8_EENSB_23cache_aligned_allocatorISF_EEEEEUlPNSD_IS6_EERNSB_6feederISL_EEE_SL_EE, i32 0, i32 0, i32 2), ptr %this1, align 64
  %item = getelementptr inbounds %"struct.tbb::detail::d2::feeder_item_task", ptr %this1, i32 0, i32 1
  %0 = load ptr, ptr %input_item.addr, align 8
  %1 = load ptr, ptr %0, align 8
  store ptr %1, ptr %item, align 64
  %my_feeder = getelementptr inbounds %"struct.tbb::detail::d2::feeder_item_task", ptr %this1, i32 0, i32 2
  %2 = load ptr, ptr %feeder.addr, align 8
  store ptr %2, ptr %my_feeder, align 8
  %my_allocator = getelementptr inbounds %"struct.tbb::detail::d2::feeder_item_task", ptr %this1, i32 0, i32 3
  %3 = load ptr, ptr %alloc.addr, align 8
  call void @llvm.memcpy.p0.p0.i64(ptr align 16 %my_allocator, ptr align 8 %3, i64 8, i1 false)
  ret void
}

; Function Attrs: mustprogress nounwind
define linkonce_odr dso_local void @_ZN3tbb6detail2d15spawnERNS1_4taskERNS1_18task_group_contextE(ptr noundef nonnull align 64 dereferenceable(64) %t, ptr noundef nonnull align 8 dereferenceable(128) %ctx) #4 comdat {
entry:
  %t.addr = alloca ptr, align 8
  %ctx.addr = alloca ptr, align 8
  store ptr %t, ptr %t.addr, align 8
  store ptr %ctx, ptr %ctx.addr, align 8
  %0 = load ptr, ptr %t.addr, align 8
  call void @_ZN3tbb6detail2d120call_itt_task_notifyENS1_11notify_typeEPv(i32 noundef 3, ptr noundef %0)
  %1 = load ptr, ptr %t.addr, align 8
  %2 = load ptr, ptr %ctx.addr, align 8
  call void @_ZN3tbb6detail2r15spawnERNS0_2d14taskERNS2_18task_group_contextE(ptr noundef nonnull align 64 dereferenceable(64) %1, ptr noundef nonnull align 8 dereferenceable(128) %2)
  ret void
}

; Function Attrs: mustprogress nounwind
define linkonce_odr dso_local void @_ZN3tbb6detail2d112wait_context7reserveEj(ptr noundef nonnull align 8 dereferenceable(16) %this, i32 noundef %delta) #4 comdat align 2 {
entry:
  %this.addr = alloca ptr, align 8
  %delta.addr = alloca i32, align 4
  store ptr %this, ptr %this.addr, align 8
  store i32 %delta, ptr %delta.addr, align 4
  %this1 = load ptr, ptr %this.addr, align 8
  %0 = load i32, ptr %delta.addr, align 4
  %conv = zext i32 %0 to i64
  call void @_ZN3tbb6detail2d112wait_context13add_referenceEl(ptr noundef nonnull align 8 dereferenceable(16) %this1, i64 noundef %conv)
  ret void
}

; Function Attrs: mustprogress nounwind
define internal noundef ptr @_ZN3tbb6detail2d122small_object_allocator10new_objectINS0_2d216feeder_item_taskIZN4mold3elfL4markINS7_6RV64LEEEEvRNS7_7ContextIT_EERNS1_17concurrent_vectorIPNS7_12InputSectionISB_EENS1_23cache_aligned_allocatorISH_EEEEEUlPNSF_IS9_EERNS1_6feederISN_EEE_SN_EEJRKSN_RNS4_11feeder_implISR_SN_EERS2_EEEPSB_DpOT0_(ptr noundef nonnull align 8 dereferenceable(8) %this, ptr noundef nonnull align 8 dereferenceable(8) %args, ptr noundef nonnull align 8 dereferenceable(32) %args1, ptr noundef nonnull align 8 dereferenceable(8) %args3) #4 align 2 {
entry:
  %this.addr = alloca ptr, align 8
  %args.addr = alloca ptr, align 8
  %args.addr2 = alloca ptr, align 8
  %args.addr4 = alloca ptr, align 8
  %allocated_object = alloca ptr, align 8
  %constructed_object = alloca ptr, align 8
  store ptr %this, ptr %this.addr, align 8
  store ptr %args, ptr %args.addr, align 8
  store ptr %args1, ptr %args.addr2, align 8
  store ptr %args3, ptr %args.addr4, align 8
  %this5 = load ptr, ptr %this.addr, align 8
  %m_pool = getelementptr inbounds %"class.tbb::detail::d1::small_object_allocator", ptr %this5, i32 0, i32 0
  %call = call noundef ptr @_ZN3tbb6detail2r18allocateERPNS0_2d117small_object_poolEm(ptr noundef nonnull align 8 dereferenceable(8) %m_pool, i64 noundef 128)
  store ptr %call, ptr %allocated_object, align 8
  %0 = load ptr, ptr %allocated_object, align 8
  %1 = load ptr, ptr %args.addr, align 8
  %2 = load ptr, ptr %args.addr2, align 8
  %3 = load ptr, ptr %args.addr4, align 8
  call void @_ZN3tbb6detail2d216feeder_item_taskIZN4mold3elfL4markINS4_6RV64LEEEEvRNS4_7ContextIT_EERNS0_2d117concurrent_vectorIPNS4_12InputSectionIS8_EENSB_23cache_aligned_allocatorISF_EEEEEUlPNSD_IS6_EERNSB_6feederISL_EEE_SL_EC2IRKSL_EEOS8_RNS1_11feeder_implISP_SL_EERNSB_22small_object_allocatorE(ptr noundef nonnull align 64 dereferenceable(88) %0, ptr noundef nonnull align 8 dereferenceable(8) %1, ptr noundef nonnull align 8 dereferenceable(32) %2, ptr noundef nonnull align 8 dereferenceable(8) %3)
  store ptr %0, ptr %constructed_object, align 8
  %4 = load ptr, ptr %constructed_object, align 8
  ret ptr %4
}

; Function Attrs: mustprogress nounwind
define linkonce_odr dso_local void @_ZN3tbb6detail2d122small_object_allocatorC2Ev(ptr noundef nonnull align 8 dereferenceable(8) %this) unnamed_addr #4 comdat align 2 {
entry:
  %this.addr = alloca ptr, align 8
  store ptr %this, ptr %this.addr, align 8
  %this1 = load ptr, ptr %this.addr, align 8
  %m_pool = getelementptr inbounds %"class.tbb::detail::d1::small_object_allocator", ptr %this1, i32 0, i32 0
  store ptr null, ptr %m_pool, align 8
  ret void
}

; Function Attrs: mustprogress nounwind
define internal void @_ZN3tbb6detail2d211feeder_implIZN4mold3elfL4markINS4_6RV64LEEEEvRNS4_7ContextIT_EERNS0_2d117concurrent_vectorIPNS4_12InputSectionIS8_EENSB_23cache_aligned_allocatorISF_EEEEEUlPNSD_IS6_EERNSB_6feederISL_EEE_SL_E22internal_add_copy_implESt17integral_constantIbLb1EERKSL_(ptr noundef nonnull align 8 dereferenceable(32) %this, ptr noundef nonnull align 8 dereferenceable(8) %item) #4 align 2 {
entry:
  %this.addr = alloca ptr, align 8
  %item.addr = alloca ptr, align 8
  %alloc = alloca %"class.tbb::detail::d1::small_object_allocator", align 8
  %task = alloca ptr, align 8
  store ptr %this, ptr %this.addr, align 8
  store ptr %item, ptr %item.addr, align 8
  %this1 = load ptr, ptr %this.addr, align 8
  call void @_ZN3tbb6detail2d122small_object_allocatorC2Ev(ptr noundef nonnull align 8 dereferenceable(8) %alloc) #3
  %0 = load ptr, ptr %item.addr, align 8
  %call = call noundef ptr @_ZN3tbb6detail2d122small_object_allocator10new_objectINS0_2d216feeder_item_taskIZN4mold3elfL4markINS7_6RV64LEEEEvRNS7_7ContextIT_EERNS1_17concurrent_vectorIPNS7_12InputSectionISB_EENS1_23cache_aligned_allocatorISH_EEEEEUlPNSF_IS9_EERNS1_6feederISN_EEE_SN_EEJRKSN_RNS4_11feeder_implISR_SN_EERS2_EEEPSB_DpOT0_(ptr noundef nonnull align 8 dereferenceable(8) %alloc, ptr noundef nonnull align 8 dereferenceable(8) %0, ptr noundef nonnull align 8 dereferenceable(32) %this1, ptr noundef nonnull align 8 dereferenceable(8) %alloc)
  store ptr %call, ptr %task, align 8
  %my_wait_context = getelementptr inbounds %"class.tbb::detail::d2::feeder_impl", ptr %this1, i32 0, i32 2
  %1 = load ptr, ptr %my_wait_context, align 8
  call void @_ZN3tbb6detail2d112wait_context7reserveEj(ptr noundef nonnull align 8 dereferenceable(16) %1, i32 noundef 1)
  %2 = load ptr, ptr %task, align 8
  %my_execution_context = getelementptr inbounds %"class.tbb::detail::d2::feeder_impl", ptr %this1, i32 0, i32 3
  %3 = load ptr, ptr %my_execution_context, align 8
  call void @_ZN3tbb6detail2d15spawnERNS1_4taskERNS1_18task_group_contextE(ptr noundef nonnull align 64 dereferenceable(64) %2, ptr noundef nonnull align 8 dereferenceable(128) %3)
  ret void
}

; Function Attrs: mustprogress nounwind
define internal void @_ZN3tbb6detail2d211feeder_implIZN4mold3elfL4markINS4_6RV64LEEEEvRNS4_7ContextIT_EERNS0_2d117concurrent_vectorIPNS4_12InputSectionIS8_EENSB_23cache_aligned_allocatorISF_EEEEEUlPNSD_IS6_EERNSB_6feederISL_EEE_SL_E17internal_add_copyERKSL_(ptr noundef nonnull align 8 dereferenceable(32) %this, ptr noundef nonnull align 8 dereferenceable(8) %item) unnamed_addr #4 align 2 {
entry:
  %this.addr = alloca ptr, align 8
  %item.addr = alloca ptr, align 8
  store ptr %this, ptr %this.addr, align 8
  store ptr %item, ptr %item.addr, align 8
  %this1 = load ptr, ptr %this.addr, align 8
  %0 = load ptr, ptr %item.addr, align 8
  call void @_ZN3tbb6detail2d211feeder_implIZN4mold3elfL4markINS4_6RV64LEEEEvRNS4_7ContextIT_EERNS0_2d117concurrent_vectorIPNS4_12InputSectionIS8_EENSB_23cache_aligned_allocatorISF_EEEEEUlPNSD_IS6_EERNSB_6feederISL_EEE_SL_E22internal_add_copy_implESt17integral_constantIbLb1EERKSL_(ptr noundef nonnull align 8 dereferenceable(32) %this1, ptr noundef nonnull align 8 dereferenceable(8) %0)
  ret void
}